target datalayout = "e-m:e-p270:32:32-p271:32:32-p272:64:64-i64:64-i128:128-f80:128-n8:16:32:64-S128"
target triple = "x86_64-pc-linux-gnu"

%struct.AVFilterContext = type { ptr, ptr, ptr, ptr, ptr, i32, ptr, ptr, i32, ptr, ptr, i32, i32, ptr, ptr, ptr, ptr, i32, ptr, i32, i32 }
%struct.PanContext = type { ptr, ptr, %struct.AVChannelLayout, [64 x [64 x double]], i64, i32, i32, i32, [64 x i32], ptr }
%struct.AVChannelLayout = type { i32, i32, %union.anon.1, ptr }
%union.anon.1 = type { i64 }
%struct.AVFilterFormatsConfig = type { ptr, ptr, ptr, ptr, ptr }
%struct.AVFrame = type { [8 x ptr], [8 x i32], ptr, i32, i32, i32, i32, i32, %struct.AVRational, i64, i64, %struct.AVRational, i32, ptr, i32, i32, [8 x ptr], ptr, i32, ptr, i32, i32, i32, i32, i32, i32, i32, i64, ptr, i32, ptr, ptr, i64, i64, i64, i64, ptr, %struct.AVChannelLayout, i64 }
%struct.AVRational = type { i32, i32 }
%struct.AVFilterLink = type { ptr, ptr, ptr, ptr, i32, i32, i32, i32, %struct.AVRational, i32, i32, i32, %struct.AVChannelLayout, %struct.AVRational, ptr, i32, %struct.AVFilterFormatsConfig, %struct.AVFilterFormatsConfig }

; Function Attrs: nounwind uwtable
define internal i32 @filter_frame(ptr noundef %0, ptr noundef %1) #1 {
  %3 = alloca i32, align 4
  %4 = alloca ptr, align 8
  %5 = alloca ptr, align 8
  %6 = alloca i32, align 4
  %7 = alloca i32, align 4
  %8 = alloca ptr, align 8
  %9 = alloca ptr, align 8
  %10 = alloca ptr, align 8
  %11 = alloca i32, align 4
  store ptr %0, ptr %4, align 8, !tbaa !46
  store ptr %1, ptr %5, align 8, !tbaa !48
  call void @llvm.lifetime.start.p0(i64 4, ptr %6) #7
  call void @llvm.lifetime.start.p0(i64 4, ptr %7) #7
  %12 = load ptr, ptr %5, align 8, !tbaa !48
  %13 = getelementptr inbounds nuw %struct.AVFrame, ptr %12, i32 0, i32 5
  %14 = load i32, ptr %13, align 8, !tbaa !50
  store i32 %14, ptr %7, align 4, !tbaa !30
  call void @llvm.lifetime.start.p0(i64 8, ptr %8) #7
  %15 = load ptr, ptr %4, align 8, !tbaa !46
  %16 = getelementptr inbounds nuw %struct.AVFilterLink, ptr %15, i32 0, i32 2
  %17 = load ptr, ptr %16, align 8, !tbaa !57
  %18 = getelementptr inbounds nuw %struct.AVFilterContext, ptr %17, i32 0, i32 7
  %19 = load ptr, ptr %18, align 8, !tbaa !61
  %20 = getelementptr inbounds ptr, ptr %19, i64 0
  %21 = load ptr, ptr %20, align 8, !tbaa !46
  store ptr %21, ptr %8, align 8, !tbaa !46
  call void @llvm.lifetime.start.p0(i64 8, ptr %9) #7
  %22 = load ptr, ptr %8, align 8, !tbaa !46
  %23 = load i32, ptr %7, align 4, !tbaa !30
  %24 = call ptr @ff_get_audio_buffer(ptr noundef %22, i32 noundef %23)
  store ptr %24, ptr %9, align 8, !tbaa !48
  call void @llvm.lifetime.start.p0(i64 8, ptr %10) #7
  %25 = load ptr, ptr %4, align 8, !tbaa !46
  %26 = getelementptr inbounds nuw %struct.AVFilterLink, ptr %25, i32 0, i32 2
  %27 = load ptr, ptr %26, align 8, !tbaa !57
  %28 = getelementptr inbounds nuw %struct.AVFilterContext, ptr %27, i32 0, i32 9
  %29 = load ptr, ptr %28, align 8, !tbaa !9
  store ptr %29, ptr %10, align 8, !tbaa !22
  %30 = load ptr, ptr %9, align 8, !tbaa !48
  %31 = icmp ne ptr %30, null
  br i1 %31, label %33, label %32

32:                                               ; preds = %2
  call void @av_frame_free(ptr noundef %5)
  store i32 -12, ptr %3, align 4
  store i32 1, ptr %11, align 4
  br label %61

33:                                               ; preds = %2
  %34 = load ptr, ptr %10, align 8, !tbaa !22
  %35 = getelementptr inbounds nuw %struct.PanContext, ptr %34, i32 0, i32 9
  %36 = load ptr, ptr %35, align 8, !tbaa !62
  %37 = load ptr, ptr %9, align 8, !tbaa !48
  %38 = getelementptr inbounds nuw %struct.AVFrame, ptr %37, i32 0, i32 2
  %39 = load ptr, ptr %38, align 8, !tbaa !63
  %40 = load i32, ptr %7, align 4, !tbaa !30
  %41 = load ptr, ptr %5, align 8, !tbaa !48
  %42 = getelementptr inbounds nuw %struct.AVFrame, ptr %41, i32 0, i32 2
  %43 = load ptr, ptr %42, align 8, !tbaa !63
  %44 = load i32, ptr %7, align 4, !tbaa !30
  %45 = call i32 @swr_convert(ptr noundef %36, ptr noundef %39, i32 noundef %40, ptr noundef %43, i32 noundef %44)
  %46 = load ptr, ptr %9, align 8, !tbaa !48
  %47 = load ptr, ptr %5, align 8, !tbaa !48
  %48 = call i32 @av_frame_copy_props(ptr noundef %46, ptr noundef %47)
  %49 = load ptr, ptr %9, align 8, !tbaa !48
  %50 = getelementptr inbounds nuw %struct.AVFrame, ptr %49, i32 0, i32 37
  %51 = load ptr, ptr %8, align 8, !tbaa !46
  %52 = getelementptr inbounds nuw %struct.AVFilterLink, ptr %51, i32 0, i32 12
  %53 = call i32 @av_channel_layout_copy(ptr noundef %50, ptr noundef %52)
  store i32 %53, ptr %6, align 4, !tbaa !30
  %54 = icmp slt i32 %53, 0
  br i1 %54, label %55, label %57

55:                                               ; preds = %33
  call void @av_frame_free(ptr noundef %9)
  call void @av_frame_free(ptr noundef %5)
  %56 = load i32, ptr %6, align 4, !tbaa !30
  store i32 %56, ptr %3, align 4
  store i32 1, ptr %11, align 4
  br label %61

57:                                               ; preds = %33
  call void @av_frame_free(ptr noundef %5)
  %58 = load ptr, ptr %8, align 8, !tbaa !46
  %59 = load ptr, ptr %9, align 8, !tbaa !48
  %60 = call i32 @ff_filter_frame(ptr noundef %58, ptr noundef %59)
  store i32 %60, ptr %3, align 4
  store i32 1, ptr %11, align 4
  br label %61

61:                                               ; preds = %57, %55, %32
  call void @llvm.lifetime.end.p0(i64 8, ptr %10) #7
  call void @llvm.lifetime.end.p0(i64 8, ptr %9) #7
  call void @llvm.lifetime.end.p0(i64 8, ptr %8) #7
  call void @llvm.lifetime.end.p0(i64 4, ptr %7) #7
  call void @llvm.lifetime.end.p0(i64 4, ptr %6) #7
  %62 = load i32, ptr %3, align 4
  ret i32 %62
}