; Function Attrs: nounwind uwtable
define internal i32 @filter_frame(ptr noundef readonly captures(none) %0, ptr noundef %1) #1 {
  %3 = alloca ptr, align 8
  %4 = alloca ptr, align 8
  store ptr %1, ptr %3, align 8, !tbaa !41
  %5 = getelementptr inbounds nuw i8, ptr %1, i64 112
  %6 = load i32, ptr %5, align 8, !tbaa !43
  %7 = getelementptr inbounds nuw i8, ptr %0, i64 16
  %8 = load ptr, ptr %7, align 8, !tbaa !50
  %9 = getelementptr inbounds nuw i8, ptr %8, i64 56
  %10 = load ptr, ptr %9, align 8, !tbaa !55
  %11 = load ptr, ptr %10, align 8, !tbaa !56
  call void @llvm.lifetime.start.p0(i64 8, ptr nonnull %4) #8
  %12 = tail call ptr @ff_get_audio_buffer(ptr noundef %11, i32 noundef %6) #8
  store ptr %12, ptr %4, align 8, !tbaa !41
  %.not = icmp eq ptr %12, null
  br i1 %.not, label %13, label %14

13:                                               ; preds = %2
  call void @av_frame_free(ptr noundef nonnull %3) #8
  br label %33

14:                                               ; preds = %2
  %15 = load ptr, ptr %7, align 8, !tbaa !50
  %16 = getelementptr inbounds nuw i8, ptr %15, i64 72
  %17 = load ptr, ptr %16, align 8, !tbaa !4
  %18 = getelementptr inbounds nuw i8, ptr %17, i64 33088
  %19 = load ptr, ptr %18, align 8, !tbaa !58
  %20 = getelementptr inbounds nuw i8, ptr %12, i64 96
  %21 = load ptr, ptr %20, align 8, !tbaa !59
  %22 = getelementptr inbounds nuw i8, ptr %1, i64 96
  %23 = load ptr, ptr %22, align 8, !tbaa !59
  %24 = tail call i32 @swr_convert(ptr noundef %19, ptr noundef %21, i32 noundef %6, ptr noundef %23, i32 noundef %6) #8
  %25 = tail call i32 @av_frame_copy_props(ptr noundef nonnull %12, ptr noundef nonnull %1) #8
  %26 = getelementptr inbounds nuw i8, ptr %12, i64 384
  %27 = getelementptr inbounds nuw i8, ptr %11, i64 72
  %28 = tail call i32 @av_channel_layout_copy(ptr noundef nonnull %26, ptr noundef nonnull %27) #8
  %29 = icmp slt i32 %28, 0
  br i1 %29, label %30, label %31

30:                                               ; preds = %14
  call void @av_frame_free(ptr noundef nonnull %4) #8
  call void @av_frame_free(ptr noundef nonnull %3) #8
  br label %33

31:                                               ; preds = %14
  call void @av_frame_free(ptr noundef nonnull %3) #8
  %32 = call i32 @ff_filter_frame(ptr noundef nonnull %11, ptr noundef nonnull %12) #8
  br label %33

33:                                               ; preds = %31, %30, %13
  %.0 = phi i32 [ %28, %30 ], [ %32, %31 ], [ -12, %13 ]
  call void @llvm.lifetime.end.p0(i64 8, ptr nonnull %4) #8
  ret i32 %.0
}